; Function Attrs: nounwind uwtable
define hidden i64 @ps_gc_user(ptr readnone captures(none) %0, i64 noundef %1, ptr noundef writeonly captures(none) initializes((0, 8)) %2) #0 {
  %4 = alloca [1 x %struct._zval_struct], align 16
  %5 = alloca %struct._zval_struct, align 8
  call void @llvm.lifetime.start.p0(i64 16, ptr nonnull %4) #8
  call void @llvm.lifetime.start.p0(i64 16, ptr nonnull %5) #8
  store i64 %1, ptr %4, align 16, !tbaa !9
  %6 = getelementptr inbounds nuw i8, ptr %4, i64 8
  store i32 4, ptr %6, align 8, !tbaa !9
  %7 = load i8, ptr getelementptr inbounds nuw (i8, ptr @ps_globals, i64 436), align 4, !tbaa !47, !range !58, !noundef !59
  %8 = trunc nuw i8 %7 to i1
  br i1 %8, label %ps_call_handler.exit.thread, label %9

ps_call_handler.exit.thread:                      ; preds = %3
  store i8 0, ptr getelementptr inbounds nuw (i8, ptr @ps_globals, i64 436), align 4, !tbaa !47
  tail call void (ptr, i32, ptr, ...) @php_error_docref(ptr noundef null, i32 noundef 2, ptr noundef nonnull @.str.4) #8
  br label %21

9:                                                ; preds = %3
  store i8 1, ptr getelementptr inbounds nuw (i8, ptr @ps_globals, i64 436), align 4, !tbaa !47
  %10 = call i32 @_call_user_function_impl(ptr noundef null, ptr noundef nonnull getelementptr inbounds nuw (i8, ptr @ps_globals, i64 272), ptr noundef nonnull %5, i32 noundef 1, ptr noundef nonnull %4, ptr noundef null) #8
  %11 = icmp eq i32 %10, -1
  br i1 %11, label %12, label %14

12:                                               ; preds = %9
  call void @zval_ptr_dtor(ptr noundef nonnull %5) #8
  %13 = getelementptr inbounds nuw i8, ptr %5, i64 8
  store i32 0, ptr %13, align 8, !tbaa !9
  br label %ps_call_handler.exit

14:                                               ; preds = %9
  %15 = getelementptr inbounds nuw i8, ptr %5, i64 8
  %16 = load i8, ptr %15, align 8, !tbaa !9
  %17 = icmp eq i8 %16, 0
  br i1 %17, label %18, label %ps_call_handler.exit

18:                                               ; preds = %14
  store i32 1, ptr %15, align 8, !tbaa !9
  br label %ps_call_handler.exit

ps_call_handler.exit:                             ; preds = %12, %14, %18
  store i8 0, ptr getelementptr inbounds nuw (i8, ptr @ps_globals, i64 436), align 4, !tbaa !47
  call void @zval_ptr_dtor(ptr noundef nonnull %4) #8
  %.phi.trans.insert = getelementptr inbounds nuw i8, ptr %5, i64 8
  %.pre = load i8, ptr %.phi.trans.insert, align 8, !tbaa !9
  switch i8 %.pre, label %21 [
    i8 4, label %19
    i8 3, label %22
  ]

19:                                               ; preds = %ps_call_handler.exit
  %20 = load i64, ptr %5, align 8, !tbaa !9
  br label %22

21:                                               ; preds = %ps_call_handler.exit.thread, %ps_call_handler.exit
  br label %22

22:                                               ; preds = %ps_call_handler.exit, %21, %19
  %.sink = phi i64 [ -1, %21 ], [ %20, %19 ], [ 1, %ps_call_handler.exit ]
  store i64 %.sink, ptr %2, align 8, !tbaa !62
  call void @llvm.lifetime.end.p0(i64 16, ptr nonnull %5) #8
  call void @llvm.lifetime.end.p0(i64 16, ptr nonnull %4) #8
  ret i64 %.sink
}